target datalayout = "e-m:e-p270:32:32-p271:32:32-p272:64:64-i64:64-i128:128-f80:128-n8:16:32:64-S128"
target triple = "x86_64-pc-linux-gnu"

%struct.AVCodecContext = type { ptr, i32, i32, ptr, i32, i32, ptr, ptr, ptr, i64, i32, i32, ptr, i32, %struct.AVRational, %struct.AVRational, %struct.AVRational, i32, i32, i32, i32, i32, %struct.AVRational, i32, i32, i32, i32, i32, i32, i32, i32, i32, i32, i32, ptr, ptr, i32, float, float, float, float, float, float, float, float, float, i32, i32, i32, i32, i32, i32, i32, i32, i32, i32, i32, i32, ptr, ptr, ptr, i32, i32, i32, i32, i32, i32, i32, i32, i32, i32, %struct.AVChannelLayout, i32, i32, i32, i32, i32, i32, i32, i32, ptr, i32, i32, i32, float, float, i32, i32, i32, i32, i32, ptr, i64, i64, float, float, i32, i32, ptr, ptr, i32, i32, i32, i32, i32, ptr, ptr, ptr, ptr, i32, i32, [8 x i64], i32, i32, i32, i32, i32, i32, i32, ptr, ptr, i32, i32, i32, i32, i32, i32, i32, i32, i32, i32, ptr, ptr, i32, i32, ptr, ptr, ptr, ptr, i32, i32, i64, i32, i32, i64, ptr, i64, ptr, i32, ptr, i32 }
%struct.AVRational = type { i32, i32 }
%struct.AVChannelLayout = type { i32, i32, %union.anon.0, ptr }
%union.anon.0 = type { i64 }
%struct.MWSCContext = type { i32, ptr, ptr, %struct.FFZStream }
%struct.FFZStream = type { %struct.z_stream_s, i32 }
%struct.z_stream_s = type { ptr, i32, i64, ptr, i32, i64, ptr, ptr, ptr, ptr, ptr, i32, i64, i64 }

; Function Attrs: cold nounwind optsize uwtable
define internal i32 @decode_init(ptr noundef %0) #0 {
  %2 = alloca i32, align 4
  %3 = alloca ptr, align 8
  %4 = alloca ptr, align 8
  %5 = alloca i64, align 8
  %6 = alloca i32, align 4
  store ptr %0, ptr %3, align 8, !tbaa !4
  call void @llvm.lifetime.start.p0(i64 8, ptr %4) #7
  %7 = load ptr, ptr %3, align 8, !tbaa !4
  %8 = getelementptr inbounds nuw %struct.AVCodecContext, ptr %7, i32 0, i32 6
  %9 = load ptr, ptr %8, align 8, !tbaa !9
  store ptr %9, ptr %4, align 8, !tbaa !29
  call void @llvm.lifetime.start.p0(i64 8, ptr %5) #7
  %10 = load ptr, ptr %3, align 8, !tbaa !4
  %11 = getelementptr inbounds nuw %struct.AVCodecContext, ptr %10, i32 0, i32 23
  store i32 3, ptr %11, align 8, !tbaa !31
  %12 = load ptr, ptr %3, align 8, !tbaa !4
  %13 = getelementptr inbounds nuw %struct.AVCodecContext, ptr %12, i32 0, i32 19
  %14 = load i32, ptr %13, align 4, !tbaa !32
  %15 = sext i32 %14 to i64
  %16 = mul nsw i64 32, %15
  %17 = load ptr, ptr %3, align 8, !tbaa !4
  %18 = getelementptr inbounds nuw %struct.AVCodecContext, ptr %17, i32 0, i32 18
  %19 = load i32, ptr %18, align 8, !tbaa !33
  %20 = sext i32 %19 to i64
  %21 = mul nsw i64 %16, %20
  store i64 %21, ptr %5, align 8, !tbaa !34
  %22 = load i64, ptr %5, align 8, !tbaa !34
  %23 = icmp sge i64 %22, 2147483647
  br i1 %23, label %24, label %25

24:                                               ; preds = %1
  store i32 -1094995529, ptr %2, align 4
  store i32 1, ptr %6, align 4
  br label %53

25:                                               ; preds = %1
  %26 = load i64, ptr %5, align 8, !tbaa !34
  %27 = trunc i64 %26 to i32
  %28 = load ptr, ptr %4, align 8, !tbaa !29
  %29 = getelementptr inbounds nuw %struct.MWSCContext, ptr %28, i32 0, i32 0
  store i32 %27, ptr %29, align 8, !tbaa !35
  %30 = load ptr, ptr %4, align 8, !tbaa !29
  %31 = getelementptr inbounds nuw %struct.MWSCContext, ptr %30, i32 0, i32 0
  %32 = load i32, ptr %31, align 8, !tbaa !35
  %33 = zext i32 %32 to i64
  %34 = call noalias ptr @av_malloc(i64 noundef %33)
  %35 = load ptr, ptr %4, align 8, !tbaa !29
  %36 = getelementptr inbounds nuw %struct.MWSCContext, ptr %35, i32 0, i32 1
  store ptr %34, ptr %36, align 8, !tbaa !41
  %37 = icmp ne ptr %34, null
  br i1 %37, label %39, label %38

38:                                               ; preds = %25
  store i32 -12, ptr %2, align 4
  store i32 1, ptr %6, align 4
  br label %53

39:                                               ; preds = %25
  %40 = call ptr @av_frame_alloc()
  %41 = load ptr, ptr %4, align 8, !tbaa !29
  %42 = getelementptr inbounds nuw %struct.MWSCContext, ptr %41, i32 0, i32 2
  store ptr %40, ptr %42, align 8, !tbaa !42
  %43 = load ptr, ptr %4, align 8, !tbaa !29
  %44 = getelementptr inbounds nuw %struct.MWSCContext, ptr %43, i32 0, i32 2
  %45 = load ptr, ptr %44, align 8, !tbaa !42
  %46 = icmp ne ptr %45, null
  br i1 %46, label %48, label %47

47:                                               ; preds = %39
  store i32 -12, ptr %2, align 4
  store i32 1, ptr %6, align 4
  br label %53

48:                                               ; preds = %39
  %49 = load ptr, ptr %4, align 8, !tbaa !29
  %50 = getelementptr inbounds nuw %struct.MWSCContext, ptr %49, i32 0, i32 3
  %51 = load ptr, ptr %3, align 8, !tbaa !4
  %52 = call i32 @ff_inflate_init(ptr noundef %50, ptr noundef %51)
  store i32 %52, ptr %2, align 4
  store i32 1, ptr %6, align 4
  br label %53

53:                                               ; preds = %48, %47, %38, %24
  call void @llvm.lifetime.end.p0(i64 8, ptr %5) #7
  call void @llvm.lifetime.end.p0(i64 8, ptr %4) #7
  %54 = load i32, ptr %2, align 4
  ret i32 %54
}