; Function Attrs: cold nounwind optsize uwtable
define internal i32 @decode_init(ptr noundef initializes((136, 140)) %0) #0 {
  %2 = getelementptr inbounds nuw i8, ptr %0, i64 32
  %3 = load ptr, ptr %2, align 8, !tbaa !4
  %4 = getelementptr inbounds nuw i8, ptr %0, i64 136
  store i32 3, ptr %4, align 8, !tbaa !27
  %5 = getelementptr inbounds nuw i8, ptr %0, i64 116
  %6 = load i32, ptr %5, align 4, !tbaa !28
  %7 = sext i32 %6 to i64
  %8 = shl nsw i64 %7, 5
  %9 = getelementptr inbounds nuw i8, ptr %0, i64 112
  %10 = load i32, ptr %9, align 8, !tbaa !29
  %11 = sext i32 %10 to i64
  %12 = mul nsw i64 %8, %11
  %13 = icmp sgt i64 %12, 2147483646
  br i1 %13, label %25, label %14

14:                                               ; preds = %1
  %15 = trunc i64 %12 to i32
  store i32 %15, ptr %3, align 8, !tbaa !30
  %16 = and i64 %12, 4294967264
  %17 = tail call noalias ptr @av_malloc(i64 noundef %16) #5
  %18 = getelementptr inbounds nuw i8, ptr %3, i64 8
  store ptr %17, ptr %18, align 8, !tbaa !36
  %.not = icmp eq ptr %17, null
  br i1 %.not, label %25, label %19

19:                                               ; preds = %14
  %20 = tail call ptr @av_frame_alloc() #5
  %21 = getelementptr inbounds nuw i8, ptr %3, i64 16
  store ptr %20, ptr %21, align 8, !tbaa !37
  %.not14 = icmp eq ptr %20, null
  br i1 %.not14, label %25, label %22

22:                                               ; preds = %19
  %23 = getelementptr inbounds nuw i8, ptr %3, i64 24
  %24 = tail call i32 @ff_inflate_init(ptr noundef nonnull %23, ptr noundef nonnull %0) #5
  br label %25

25:                                               ; preds = %19, %14, %1, %22
  %.0 = phi i32 [ %24, %22 ], [ -1094995529, %1 ], [ -12, %14 ], [ -12, %19 ]
  ret i32 %.0
}